; Function Attrs: nounwind uwtable
define ptr @l_Lean_PersistentHashSet_forIn___rarg___boxed(ptr noundef %0, ptr noundef %1, ptr noundef %2, ptr noundef %3, ptr noundef %4, ptr noundef %5) #0 {
  tail call void @lean_inc_heartbeat() #3
  %7 = tail call noalias ptr @mi_malloc_small(i64 noundef 32) #3
  %8 = icmp eq ptr %7, null
  br i1 %8, label %9, label %l_Lean_PersistentHashSet_forIn___rarg.exit

9:                                                ; preds = %6
  tail call void @lean_internal_panic_out_of_memory() #4
  unreachable

l_Lean_PersistentHashSet_forIn___rarg.exit:       ; preds = %6
  %10 = getelementptr inbounds nuw i8, ptr %7, i64 4
  store i32 1, ptr %7, align 4, !tbaa !4
  store i32 -184549344, ptr %10, align 4
  %11 = getelementptr inbounds nuw i8, ptr %7, i64 8
  store ptr @l_Lean_PersistentHashSet_forIn___rarg___lambda__1, ptr %11, align 8, !tbaa !9
  %12 = getelementptr inbounds nuw i8, ptr %7, i64 16
  store i16 3, ptr %12, align 8, !tbaa !11
  %13 = getelementptr inbounds nuw i8, ptr %7, i64 18
  store i16 1, ptr %13, align 2, !tbaa !11
  %14 = getelementptr inbounds nuw i8, ptr %7, i64 24
  store ptr %5, ptr %14, align 8, !tbaa !9
  %15 = tail call ptr @l_Lean_PersistentHashMap_forIn___at_Lean_PersistentHashSet_forIn___spec__1___rarg(ptr readnone poison, ptr readnone poison, ptr noundef %2, ptr noundef %3, ptr noundef %4, ptr noundef nonnull %7)
  %16 = ptrtoint ptr %1 to i64
  %17 = and i64 %16, 1
  %.not = icmp eq i64 %17, 0
  br i1 %.not, label %18, label %lean_dec.exit9

18:                                               ; preds = %l_Lean_PersistentHashSet_forIn___rarg.exit
  %19 = load i32, ptr %1, align 4, !tbaa !4
  %20 = icmp sgt i32 %19, 1
  br i1 %20, label %21, label %23, !prof !13

21:                                               ; preds = %18
  %22 = add nsw i32 %19, -1
  store i32 %22, ptr %1, align 4, !tbaa !4
  br label %lean_dec.exit9

23:                                               ; preds = %18
  %.not.i = icmp eq i32 %19, 0
  br i1 %.not.i, label %lean_dec.exit9, label %24

24:                                               ; preds = %23
  tail call void @lean_dec_ref_cold(ptr noundef nonnull %1) #3
  br label %lean_dec.exit9

lean_dec.exit9:                                   ; preds = %24, %23, %21, %l_Lean_PersistentHashSet_forIn___rarg.exit
  %25 = ptrtoint ptr %0 to i64
  %26 = and i64 %25, 1
  %.not12 = icmp eq i64 %26, 0
  br i1 %.not12, label %27, label %lean_dec.exit

27:                                               ; preds = %lean_dec.exit9
  %28 = load i32, ptr %0, align 4, !tbaa !4
  %29 = icmp sgt i32 %28, 1
  br i1 %29, label %30, label %32, !prof !13

30:                                               ; preds = %27
  %31 = add nsw i32 %28, -1
  store i32 %31, ptr %0, align 4, !tbaa !4
  br label %lean_dec.exit

32:                                               ; preds = %27
  %.not.i10 = icmp eq i32 %28, 0
  br i1 %.not.i10, label %lean_dec.exit, label %33

33:                                               ; preds = %32
  tail call void @lean_dec_ref_cold(ptr noundef nonnull %0) #3
  br label %lean_dec.exit

lean_dec.exit:                                    ; preds = %33, %32, %30, %lean_dec.exit9
  ret ptr %15
}